target datalayout = "e-m:e-p270:32:32-p271:32:32-p272:64:64-i64:64-i128:128-f80:128-n8:16:32:64-S128"
target triple = "x86_64-pc-linux-gnu"

%struct.LexState = type { ptr, ptr, %union.TValue, %union.TValue, ptr, ptr, i32, i32, i32, %struct.SBuf, ptr, ptr, i32, i32, ptr, ptr, ptr, ptr, i32, i32, ptr, i32, i32, i32, i32 }
%union.TValue = type { i64 }
%struct.SBuf = type { ptr, ptr, ptr, %struct.MRef }
%struct.MRef = type { i64 }
%struct.FuncState = type { ptr, ptr, ptr, ptr, ptr, i32, i32, i32, i32, i32, i32, i32, i32, ptr, i32, i32, i8, i8, i8, i8, [200 x i16], [60 x i16], [60 x i16] }
%struct.GCRef = type { i64 }
%struct.FuncScope = type { ptr, i32, i8, i8 }
%struct.ExpDesc = type { %union.anon.2, i32, i32, i32 }
%union.anon.2 = type { %union.TValue }
%struct.anon.3 = type { i32, i32 }
%struct.VarInfo = type { %struct.GCRef, i32, i32, i8, i8 }

@.str.5 = private unnamed_addr constant [9 x i8] c"upvalues\00", align 1

; Function Attrs: nounwind uwtable
define internal i32 @var_lookup_uv(ptr noundef %0, i32 noundef %1, ptr noundef %2) #0 {
  %4 = alloca i32, align 4
  %5 = alloca ptr, align 8
  %6 = alloca i32, align 4
  %7 = alloca ptr, align 8
  %8 = alloca i32, align 4
  %9 = alloca i32, align 4
  %10 = alloca i32, align 4
  store ptr %0, ptr %5, align 8, !tbaa !62
  store i32 %1, ptr %6, align 4, !tbaa !79
  store ptr %2, ptr %7, align 8, !tbaa !127
  call void @llvm.lifetime.start.p0(i64 4, ptr %8) #11
  call void @llvm.lifetime.start.p0(i64 4, ptr %9) #11
  %11 = load ptr, ptr %5, align 8, !tbaa !62
  %12 = getelementptr inbounds nuw %struct.FuncState, ptr %11, i32 0, i32 19
  %13 = load i8, ptr %12, align 1, !tbaa !75
  %14 = zext i8 %13 to i32
  store i32 %14, ptr %9, align 4, !tbaa !79
  store i32 0, ptr %8, align 4, !tbaa !79
  br label %15

15:                                               ; preds = %32, %3
  %16 = load i32, ptr %8, align 4, !tbaa !79
  %17 = load i32, ptr %9, align 4, !tbaa !79
  %18 = icmp ult i32 %16, %17
  br i1 %18, label %19, label %35

19:                                               ; preds = %15
  %20 = load ptr, ptr %5, align 8, !tbaa !62
  %21 = getelementptr inbounds nuw %struct.FuncState, ptr %20, i32 0, i32 21
  %22 = load i32, ptr %8, align 4, !tbaa !79
  %23 = zext i32 %22 to i64
  %24 = getelementptr inbounds nuw [60 x i16], ptr %21, i64 0, i64 %23
  %25 = load i16, ptr %24, align 2, !tbaa !110
  %26 = zext i16 %25 to i32
  %27 = load i32, ptr %6, align 4, !tbaa !79
  %28 = icmp eq i32 %26, %27
  br i1 %28, label %29, label %31

29:                                               ; preds = %19
  %30 = load i32, ptr %8, align 4, !tbaa !79
  store i32 %30, ptr %4, align 4
  store i32 1, ptr %10, align 4
  br label %77

31:                                               ; preds = %19
  br label %32

32:                                               ; preds = %31
  %33 = load i32, ptr %8, align 4, !tbaa !79
  %34 = add i32 %33, 1
  store i32 %34, ptr %8, align 4, !tbaa !79
  br label %15, !llvm.loop !163

35:                                               ; preds = %15
  %36 = load ptr, ptr %5, align 8, !tbaa !62
  %37 = getelementptr inbounds nuw %struct.FuncState, ptr %36, i32 0, i32 19
  %38 = load i8, ptr %37, align 1, !tbaa !75
  %39 = zext i8 %38 to i32
  %40 = icmp sge i32 %39, 60
  br i1 %40, label %41, label %43

41:                                               ; preds = %35
  %42 = load ptr, ptr %5, align 8, !tbaa !62
  call void @err_limit(ptr noundef %42, i32 noundef 60, ptr noundef @.str.5) #13
  unreachable

43:                                               ; preds = %35
  %44 = load i32, ptr %6, align 4, !tbaa !79
  %45 = trunc i32 %44 to i16
  %46 = load ptr, ptr %5, align 8, !tbaa !62
  %47 = getelementptr inbounds nuw %struct.FuncState, ptr %46, i32 0, i32 21
  %48 = load i32, ptr %9, align 4, !tbaa !79
  %49 = zext i32 %48 to i64
  %50 = getelementptr inbounds nuw [60 x i16], ptr %47, i64 0, i64 %49
  store i16 %45, ptr %50, align 2, !tbaa !110
  %51 = load ptr, ptr %7, align 8, !tbaa !127
  %52 = getelementptr inbounds nuw %struct.ExpDesc, ptr %51, i32 0, i32 1
  %53 = load i32, ptr %52, align 8, !tbaa !117
  %54 = icmp eq i32 %53, 6
  br i1 %54, label %55, label %57

55:                                               ; preds = %43
  %56 = load i32, ptr %6, align 4, !tbaa !79
  br label %63

57:                                               ; preds = %43
  %58 = load ptr, ptr %7, align 8, !tbaa !127
  %59 = getelementptr inbounds nuw %struct.ExpDesc, ptr %58, i32 0, i32 0
  %60 = getelementptr inbounds nuw %struct.anon.3, ptr %59, i32 0, i32 0
  %61 = load i32, ptr %60, align 8, !tbaa !32
  %62 = add i32 65476, %61
  br label %63

63:                                               ; preds = %57, %55
  %64 = phi i32 [ %56, %55 ], [ %62, %57 ]
  %65 = trunc i32 %64 to i16
  %66 = load ptr, ptr %5, align 8, !tbaa !62
  %67 = getelementptr inbounds nuw %struct.FuncState, ptr %66, i32 0, i32 22
  %68 = load i32, ptr %9, align 4, !tbaa !79
  %69 = zext i32 %68 to i64
  %70 = getelementptr inbounds nuw [60 x i16], ptr %67, i64 0, i64 %69
  store i16 %65, ptr %70, align 2, !tbaa !110
  %71 = load i32, ptr %9, align 4, !tbaa !79
  %72 = add i32 %71, 1
  %73 = trunc i32 %72 to i8
  %74 = load ptr, ptr %5, align 8, !tbaa !62
  %75 = getelementptr inbounds nuw %struct.FuncState, ptr %74, i32 0, i32 19
  store i8 %73, ptr %75, align 1, !tbaa !75
  %76 = load i32, ptr %9, align 4, !tbaa !79
  store i32 %76, ptr %4, align 4
  store i32 1, ptr %10, align 4
  br label %77

77:                                               ; preds = %63, %29
  call void @llvm.lifetime.end.p0(i64 4, ptr %9) #11
  call void @llvm.lifetime.end.p0(i64 4, ptr %8) #11
  %78 = load i32, ptr %4, align 4
  ret i32 %78
}

; Function Attrs: nounwind uwtable
define internal void @fscope_uvmark(ptr noundef %0, i32 noundef %1) #0 {
  %3 = alloca ptr, align 8
  %4 = alloca i32, align 4
  %5 = alloca ptr, align 8
  store ptr %0, ptr %3, align 8, !tbaa !62
  store i32 %1, ptr %4, align 4, !tbaa !79
  call void @llvm.lifetime.start.p0(i64 8, ptr %5) #11
  %6 = load ptr, ptr %3, align 8, !tbaa !62
  %7 = getelementptr inbounds nuw %struct.FuncState, ptr %6, i32 0, i32 3
  %8 = load ptr, ptr %7, align 8, !tbaa !76
  store ptr %8, ptr %5, align 8, !tbaa !78
  br label %9

9:                                                ; preds = %22, %2
  %10 = load ptr, ptr %5, align 8, !tbaa !78
  %11 = icmp ne ptr %10, null
  br i1 %11, label %12, label %19

12:                                               ; preds = %9
  %13 = load ptr, ptr %5, align 8, !tbaa !78
  %14 = getelementptr inbounds nuw %struct.FuncScope, ptr %13, i32 0, i32 2
  %15 = load i8, ptr %14, align 4, !tbaa !80
  %16 = zext i8 %15 to i32
  %17 = load i32, ptr %4, align 4, !tbaa !79
  %18 = icmp ugt i32 %16, %17
  br label %19

19:                                               ; preds = %12, %9
  %20 = phi i1 [ false, %9 ], [ %18, %12 ]
  br i1 %20, label %21, label %26

21:                                               ; preds = %19
  br label %22

22:                                               ; preds = %21
  %23 = load ptr, ptr %5, align 8, !tbaa !78
  %24 = getelementptr inbounds nuw %struct.FuncScope, ptr %23, i32 0, i32 0
  %25 = load ptr, ptr %24, align 8, !tbaa !84
  store ptr %25, ptr %5, align 8, !tbaa !78
  br label %9, !llvm.loop !162

26:                                               ; preds = %19
  %27 = load ptr, ptr %5, align 8, !tbaa !78
  %28 = icmp ne ptr %27, null
  br i1 %28, label %29, label %36

29:                                               ; preds = %26
  %30 = load ptr, ptr %5, align 8, !tbaa !78
  %31 = getelementptr inbounds nuw %struct.FuncScope, ptr %30, i32 0, i32 3
  %32 = load i8, ptr %31, align 1, !tbaa !82
  %33 = zext i8 %32 to i32
  %34 = or i32 %33, 8
  %35 = trunc i32 %34 to i8
  store i8 %35, ptr %31, align 1, !tbaa !82
  br label %36

36:                                               ; preds = %29, %26
  call void @llvm.lifetime.end.p0(i64 8, ptr %5) #11
  ret void
}

; Function Attrs: alwaysinline nounwind uwtable
define internal void @expr_init(ptr noundef %0, i32 noundef %1, i32 noundef %2) #4 {
  %4 = alloca ptr, align 8
  %5 = alloca i32, align 4
  %6 = alloca i32, align 4
  store ptr %0, ptr %4, align 8, !tbaa !127
  store i32 %1, ptr %5, align 4, !tbaa !79
  store i32 %2, ptr %6, align 4, !tbaa !79
  %7 = load i32, ptr %5, align 4, !tbaa !79
  %8 = load ptr, ptr %4, align 8, !tbaa !127
  %9 = getelementptr inbounds nuw %struct.ExpDesc, ptr %8, i32 0, i32 1
  store i32 %7, ptr %9, align 8, !tbaa !117
  %10 = load i32, ptr %6, align 4, !tbaa !79
  %11 = load ptr, ptr %4, align 8, !tbaa !127
  %12 = getelementptr inbounds nuw %struct.ExpDesc, ptr %11, i32 0, i32 0
  %13 = getelementptr inbounds nuw %struct.anon.3, ptr %12, i32 0, i32 0
  store i32 %10, ptr %13, align 8, !tbaa !32
  %14 = load ptr, ptr %4, align 8, !tbaa !127
  %15 = getelementptr inbounds nuw %struct.ExpDesc, ptr %14, i32 0, i32 2
  store i32 -1, ptr %15, align 4, !tbaa !129
  %16 = load ptr, ptr %4, align 8, !tbaa !127
  %17 = getelementptr inbounds nuw %struct.ExpDesc, ptr %16, i32 0, i32 3
  store i32 -1, ptr %17, align 8, !tbaa !126
  ret void
}

; Function Attrs: nounwind uwtable
define internal i32 @var_lookup_local(ptr noundef %0, ptr noundef %1) #0 {
  %3 = alloca i32, align 4
  %4 = alloca ptr, align 8
  %5 = alloca ptr, align 8
  %6 = alloca i32, align 4
  %7 = alloca i32, align 4
  store ptr %0, ptr %4, align 8, !tbaa !62
  store ptr %1, ptr %5, align 8, !tbaa !24
  call void @llvm.lifetime.start.p0(i64 4, ptr %6) #11
  %8 = load ptr, ptr %4, align 8, !tbaa !62
  %9 = getelementptr inbounds nuw %struct.FuncState, ptr %8, i32 0, i32 9
  %10 = load i32, ptr %9, align 8, !tbaa !74
  %11 = sub i32 %10, 1
  store i32 %11, ptr %6, align 4, !tbaa !79
  br label %12

12:                                               ; preds = %38, %2
  %13 = load i32, ptr %6, align 4, !tbaa !79
  %14 = icmp sge i32 %13, 0
  br i1 %14, label %15, label %41

15:                                               ; preds = %12
  %16 = load ptr, ptr %5, align 8, !tbaa !24
  %17 = load ptr, ptr %4, align 8, !tbaa !62
  %18 = getelementptr inbounds nuw %struct.FuncState, ptr %17, i32 0, i32 1
  %19 = load ptr, ptr %18, align 8, !tbaa !64
  %20 = getelementptr inbounds nuw %struct.LexState, ptr %19, i32 0, i32 17
  %21 = load ptr, ptr %20, align 8, !tbaa !113
  %22 = load ptr, ptr %4, align 8, !tbaa !62
  %23 = getelementptr inbounds nuw %struct.FuncState, ptr %22, i32 0, i32 20
  %24 = load i32, ptr %6, align 4, !tbaa !79
  %25 = sext i32 %24 to i64
  %26 = getelementptr inbounds [200 x i16], ptr %23, i64 0, i64 %25
  %27 = load i16, ptr %26, align 2, !tbaa !110
  %28 = zext i16 %27 to i64
  %29 = getelementptr inbounds nuw %struct.VarInfo, ptr %21, i64 %28
  %30 = getelementptr inbounds nuw %struct.VarInfo, ptr %29, i32 0, i32 0
  %31 = getelementptr inbounds nuw %struct.GCRef, ptr %30, i32 0, i32 0
  %32 = load i64, ptr %31, align 8, !tbaa !159
  %33 = inttoptr i64 %32 to ptr
  %34 = icmp eq ptr %16, %33
  br i1 %34, label %35, label %37

35:                                               ; preds = %15
  %36 = load i32, ptr %6, align 4, !tbaa !79
  store i32 %36, ptr %3, align 4
  store i32 1, ptr %7, align 4
  br label %42

37:                                               ; preds = %15
  br label %38

38:                                               ; preds = %37
  %39 = load i32, ptr %6, align 4, !tbaa !79
  %40 = add nsw i32 %39, -1
  store i32 %40, ptr %6, align 4, !tbaa !79
  br label %12, !llvm.loop !161

41:                                               ; preds = %12
  store i32 -1, ptr %3, align 4
  store i32 1, ptr %7, align 4
  br label %42

42:                                               ; preds = %41, %35
  call void @llvm.lifetime.end.p0(i64 4, ptr %6) #11
  %43 = load i32, ptr %3, align 4
  ret i32 %43
}

; Function Attrs: nounwind uwtable
define internal i32 @var_lookup_(ptr noundef %0, ptr noundef %1, ptr noundef %2, i32 noundef %3) #0 {
  %5 = alloca i32, align 4
  %6 = alloca ptr, align 8
  %7 = alloca ptr, align 8
  %8 = alloca ptr, align 8
  %9 = alloca i32, align 4
  %10 = alloca i32, align 4
  %11 = alloca i32, align 4
  %12 = alloca i32, align 4
  store ptr %0, ptr %6, align 8, !tbaa !62
  store ptr %1, ptr %7, align 8, !tbaa !24
  store ptr %2, ptr %8, align 8, !tbaa !127
  store i32 %3, ptr %9, align 4, !tbaa !79
  %13 = load ptr, ptr %6, align 8, !tbaa !62
  %14 = icmp ne ptr %13, null
  br i1 %14, label %15, label %70

15:                                               ; preds = %4
  call void @llvm.lifetime.start.p0(i64 4, ptr %10) #11
  %16 = load ptr, ptr %6, align 8, !tbaa !62
  %17 = load ptr, ptr %7, align 8, !tbaa !24
  %18 = call i32 @var_lookup_local(ptr noundef %16, ptr noundef %17)
  store i32 %18, ptr %10, align 4, !tbaa !79
  %19 = load i32, ptr %10, align 4, !tbaa !79
  %20 = icmp sge i32 %19, 0
  br i1 %20, label %21, label %40

21:                                               ; preds = %15
  %22 = load ptr, ptr %8, align 8, !tbaa !127
  %23 = load i32, ptr %10, align 4, !tbaa !79
  call void @expr_init(ptr noundef %22, i32 noundef 6, i32 noundef %23)
  %24 = load i32, ptr %9, align 4, !tbaa !79
  %25 = icmp ne i32 %24, 0
  br i1 %25, label %29, label %26

26:                                               ; preds = %21
  %27 = load ptr, ptr %6, align 8, !tbaa !62
  %28 = load i32, ptr %10, align 4, !tbaa !79
  call void @fscope_uvmark(ptr noundef %27, i32 noundef %28)
  br label %29

29:                                               ; preds = %26, %21
  %30 = load ptr, ptr %6, align 8, !tbaa !62
  %31 = getelementptr inbounds nuw %struct.FuncState, ptr %30, i32 0, i32 20
  %32 = load i32, ptr %10, align 4, !tbaa !79
  %33 = zext i32 %32 to i64
  %34 = getelementptr inbounds nuw [200 x i16], ptr %31, i64 0, i64 %33
  %35 = load i16, ptr %34, align 2, !tbaa !110
  %36 = zext i16 %35 to i32
  %37 = load ptr, ptr %8, align 8, !tbaa !127
  %38 = getelementptr inbounds nuw %struct.ExpDesc, ptr %37, i32 0, i32 0
  %39 = getelementptr inbounds nuw %struct.anon.3, ptr %38, i32 0, i32 1
  store i32 %36, ptr %39, align 4, !tbaa !32
  store i32 %36, ptr %5, align 4
  store i32 1, ptr %11, align 4
  br label %67

40:                                               ; preds = %15
  call void @llvm.lifetime.start.p0(i64 4, ptr %12) #11
  %41 = load ptr, ptr %6, align 8, !tbaa !62
  %42 = getelementptr inbounds nuw %struct.FuncState, ptr %41, i32 0, i32 4
  %43 = load ptr, ptr %42, align 8, !tbaa !63
  %44 = load ptr, ptr %7, align 8, !tbaa !24
  %45 = load ptr, ptr %8, align 8, !tbaa !127
  %46 = call i32 @var_lookup_(ptr noundef %43, ptr noundef %44, ptr noundef %45, i32 noundef 0)
  store i32 %46, ptr %12, align 4, !tbaa !79
  %47 = load i32, ptr %12, align 4, !tbaa !79
  %48 = icmp sge i32 %47, 0
  br i1 %48, label %49, label %62

49:                                               ; preds = %40
  %50 = load ptr, ptr %6, align 8, !tbaa !62
  %51 = load i32, ptr %12, align 4, !tbaa !79
  %52 = load ptr, ptr %8, align 8, !tbaa !127
  %53 = call i32 @var_lookup_uv(ptr noundef %50, i32 noundef %51, ptr noundef %52)
  %54 = trunc i32 %53 to i8
  %55 = zext i8 %54 to i32
  %56 = load ptr, ptr %8, align 8, !tbaa !127
  %57 = getelementptr inbounds nuw %struct.ExpDesc, ptr %56, i32 0, i32 0
  %58 = getelementptr inbounds nuw %struct.anon.3, ptr %57, i32 0, i32 0
  store i32 %55, ptr %58, align 8, !tbaa !32
  %59 = load ptr, ptr %8, align 8, !tbaa !127
  %60 = getelementptr inbounds nuw %struct.ExpDesc, ptr %59, i32 0, i32 1
  store i32 7, ptr %60, align 8, !tbaa !117
  %61 = load i32, ptr %12, align 4, !tbaa !79
  store i32 %61, ptr %5, align 4
  store i32 1, ptr %11, align 4
  br label %63

62:                                               ; preds = %40
  store i32 0, ptr %11, align 4
  br label %63

63:                                               ; preds = %62, %49
  call void @llvm.lifetime.end.p0(i64 4, ptr %12) #11
  %64 = load i32, ptr %11, align 4
  switch i32 %64, label %67 [
    i32 0, label %65
  ]

65:                                               ; preds = %63
  br label %66

66:                                               ; preds = %65
  store i32 0, ptr %11, align 4
  br label %67

67:                                               ; preds = %66, %63, %29
  call void @llvm.lifetime.end.p0(i64 4, ptr %10) #11
  %68 = load i32, ptr %11, align 4
  switch i32 %68, label %78 [
    i32 0, label %69
    i32 1, label %76
  ]

69:                                               ; preds = %67
  br label %75

70:                                               ; preds = %4
  %71 = load ptr, ptr %8, align 8, !tbaa !127
  call void @expr_init(ptr noundef %71, i32 noundef 8, i32 noundef 0)
  %72 = load ptr, ptr %7, align 8, !tbaa !24
  %73 = load ptr, ptr %8, align 8, !tbaa !127
  %74 = getelementptr inbounds nuw %struct.ExpDesc, ptr %73, i32 0, i32 0
  store ptr %72, ptr %74, align 8, !tbaa !32
  br label %75

75:                                               ; preds = %70, %69
  store i32 -1, ptr %5, align 4
  br label %76

76:                                               ; preds = %75, %67
  %77 = load i32, ptr %5, align 4
  ret i32 %77

78:                                               ; preds = %67
  unreachable
}