; Function Attrs: nounwind uwtable
define internal fastcc range(i32 -1, 65536) i32 @var_lookup_(ptr noundef captures(address_is_null) %0, ptr noundef %1, ptr noundef nonnull captures(none) %2, i32 noundef range(i32 0, 2) %3) unnamed_addr #0 {
  %.not = icmp eq ptr %0, null
  br i1 %.not, label %77, label %5

5:                                                ; preds = %4
  %6 = getelementptr inbounds nuw i8, ptr %0, i64 56
  %7 = load i32, ptr %6, align 8, !tbaa !59
  %8 = getelementptr inbounds nuw i8, ptr %0, i64 8
  %9 = getelementptr inbounds nuw i8, ptr %0, i64 92
  %10 = zext i32 %7 to i64
  br label %11

11:                                               ; preds = %13, %5
  %indvars.iv.i = phi i64 [ %indvars.iv.next.i, %13 ], [ %10, %5 ]
  %indvars.iv.next.i = add nsw i64 %indvars.iv.i, -1
  %indvars.i = trunc i64 %indvars.iv.next.i to i32
  %12 = icmp sgt i32 %indvars.i, -1
  br i1 %12, label %13, label %var_lookup_local.exit

13:                                               ; preds = %11
  %14 = load ptr, ptr %8, align 8, !tbaa !47
  %15 = getelementptr inbounds nuw i8, ptr %14, i64 144
  %16 = load ptr, ptr %15, align 8, !tbaa !87
  %17 = and i64 %indvars.iv.next.i, 2147483647
  %18 = getelementptr inbounds nuw [200 x i16], ptr %9, i64 0, i64 %17
  %19 = load i16, ptr %18, align 2, !tbaa !70
  %20 = zext i16 %19 to i64
  %21 = getelementptr inbounds nuw %struct.VarInfo, ptr %16, i64 %20
  %22 = load i64, ptr %21, align 8, !tbaa !88
  %23 = inttoptr i64 %22 to ptr
  %24 = icmp eq ptr %1, %23
  br i1 %24, label %25, label %11, !llvm.loop !164

25:                                               ; preds = %13
  %26 = getelementptr inbounds nuw [200 x i16], ptr %9, i64 0, i64 %17
  %27 = getelementptr inbounds nuw i8, ptr %2, i64 8
  store i32 6, ptr %27, align 8, !tbaa !79
  store i32 %indvars.i, ptr %2, align 8, !tbaa !25
  %28 = getelementptr inbounds nuw i8, ptr %2, i64 12
  store i32 -1, ptr %28, align 4, !tbaa !152
  %29 = getelementptr inbounds nuw i8, ptr %2, i64 16
  store i32 -1, ptr %29, align 8, !tbaa !81
  %.not32 = icmp eq i32 %3, 0
  br i1 %.not32, label %30, label %fscope_uvmark.exit

30:                                               ; preds = %25
  %31 = getelementptr inbounds nuw i8, ptr %0, i64 24
  br label %32

32:                                               ; preds = %33, %30
  %.0.in.i = phi ptr [ %31, %30 ], [ %.0.i, %33 ]
  %.0.i = load ptr, ptr %.0.in.i, align 8, !tbaa !165
  %.not.i = icmp eq ptr %.0.i, null
  br i1 %.not.i, label %fscope_uvmark.exit, label %33

33:                                               ; preds = %32
  %34 = getelementptr inbounds nuw i8, ptr %.0.i, i64 12
  %35 = load i8, ptr %34, align 4, !tbaa !60
  %36 = zext i8 %35 to i32
  %37 = icmp samesign ult i32 %indvars.i, %36
  br i1 %37, label %32, label %.critedge.i, !llvm.loop !166

.critedge.i:                                      ; preds = %33
  %38 = getelementptr inbounds nuw i8, ptr %.0.i, i64 13
  %39 = load i8, ptr %38, align 1, !tbaa !62
  %40 = or i8 %39, 8
  store i8 %40, ptr %38, align 1, !tbaa !62
  br label %fscope_uvmark.exit

fscope_uvmark.exit:                               ; preds = %32, %.critedge.i, %25
  %41 = load i16, ptr %26, align 2, !tbaa !70
  %42 = zext i16 %41 to i32
  %43 = getelementptr inbounds nuw i8, ptr %2, i64 4
  store i32 %42, ptr %43, align 4, !tbaa !25
  br label %.thread

var_lookup_local.exit:                            ; preds = %11
  %44 = getelementptr inbounds nuw i8, ptr %0, i64 32
  %45 = load ptr, ptr %44, align 8, !tbaa !46
  %46 = tail call fastcc i32 @var_lookup_(ptr noundef %45, ptr noundef %1, ptr noundef %2, i32 noundef 0)
  %47 = icmp sgt i32 %46, -1
  br i1 %47, label %48, label %.thread

48:                                               ; preds = %var_lookup_local.exit
  %49 = getelementptr inbounds nuw i8, ptr %0, i64 91
  %50 = load i8, ptr %49, align 1, !tbaa !54
  %51 = zext i8 %50 to i32
  %.not.i33 = icmp eq i8 %50, 0
  br i1 %.not.i33, label %._crit_edge.thread.i, label %.lr.ph.i

.lr.ph.i:                                         ; preds = %48
  %52 = getelementptr inbounds nuw i8, ptr %0, i64 492
  %wide.trip.count.i = zext i8 %50 to i64
  br label %53

53:                                               ; preds = %58, %.lr.ph.i
  %indvars.iv.i34 = phi i64 [ 0, %.lr.ph.i ], [ %indvars.iv.next.i35, %58 ]
  %54 = getelementptr inbounds nuw [60 x i16], ptr %52, i64 0, i64 %indvars.iv.i34
  %55 = load i16, ptr %54, align 2, !tbaa !70
  %56 = zext i16 %55 to i32
  %57 = icmp eq i32 %46, %56
  br i1 %57, label %.loopexit.loopexit.i, label %58

58:                                               ; preds = %53
  %indvars.iv.next.i35 = add nuw nsw i64 %indvars.iv.i34, 1
  %exitcond.not.i = icmp eq i64 %indvars.iv.next.i35, %wide.trip.count.i
  br i1 %exitcond.not.i, label %._crit_edge.i, label %53, !llvm.loop !167

._crit_edge.i:                                    ; preds = %58
  %59 = icmp ugt i8 %50, 59
  br i1 %59, label %60, label %._crit_edge.thread.i

60:                                               ; preds = %._crit_edge.i
  tail call fastcc void @err_limit(ptr noundef nonnull %0, i32 noundef 60, ptr noundef nonnull @.str.5) #13
  unreachable

._crit_edge.thread.i:                             ; preds = %48, %._crit_edge.i
  %.pre-phi = phi i64 [ %wide.trip.count.i, %._crit_edge.i ], [ 0, %48 ]
  %61 = trunc nuw i32 %46 to i16
  %62 = getelementptr inbounds nuw i8, ptr %0, i64 492
  %63 = getelementptr inbounds nuw [60 x i16], ptr %62, i64 0, i64 %.pre-phi
  store i16 %61, ptr %63, align 2, !tbaa !70
  %64 = getelementptr inbounds nuw i8, ptr %2, i64 8
  %65 = load i32, ptr %64, align 8, !tbaa !79
  %66 = icmp eq i32 %65, 6
  br i1 %66, label %70, label %67

67:                                               ; preds = %._crit_edge.thread.i
  %68 = load i32, ptr %2, align 8, !tbaa !25
  %69 = trunc i32 %68 to i16
  %.pre.i = add i16 %69, -60
  br label %70

70:                                               ; preds = %67, %._crit_edge.thread.i
  %.pre-phi.i = phi i16 [ %61, %._crit_edge.thread.i ], [ %.pre.i, %67 ]
  %71 = getelementptr inbounds nuw i8, ptr %0, i64 612
  %72 = getelementptr inbounds nuw [60 x i16], ptr %71, i64 0, i64 %.pre-phi
  store i16 %.pre-phi.i, ptr %72, align 2, !tbaa !70
  %73 = add nuw nsw i8 %50, 1
  store i8 %73, ptr %49, align 1, !tbaa !54
  br label %var_lookup_uv.exit

.loopexit.loopexit.i:                             ; preds = %53
  %74 = trunc nuw nsw i64 %indvars.iv.i34 to i32
  br label %var_lookup_uv.exit

var_lookup_uv.exit:                               ; preds = %70, %.loopexit.loopexit.i
  %.0.i36 = phi i32 [ %51, %70 ], [ %74, %.loopexit.loopexit.i ]
  %75 = and i32 %.0.i36, 255
  store i32 %75, ptr %2, align 8, !tbaa !25
  %76 = getelementptr inbounds nuw i8, ptr %2, i64 8
  store i32 7, ptr %76, align 8, !tbaa !79
  br label %.thread

77:                                               ; preds = %4
  %78 = getelementptr inbounds nuw i8, ptr %2, i64 8
  store i32 8, ptr %78, align 8, !tbaa !79
  %79 = getelementptr inbounds nuw i8, ptr %2, i64 12
  store i32 -1, ptr %79, align 4, !tbaa !152
  %80 = getelementptr inbounds nuw i8, ptr %2, i64 16
  store i32 -1, ptr %80, align 8, !tbaa !81
  store ptr %1, ptr %2, align 8, !tbaa !25
  br label %.thread

.thread:                                          ; preds = %var_lookup_uv.exit, %fscope_uvmark.exit, %77, %var_lookup_local.exit
  %.2 = phi i32 [ -1, %var_lookup_local.exit ], [ -1, %77 ], [ %46, %var_lookup_uv.exit ], [ %42, %fscope_uvmark.exit ]
  ret i32 %.2
}